target datalayout = "e-m:e-p270:32:32-p271:32:32-p272:64:64-i64:64-i128:128-f80:128-n8:16:32:64-S128"
target triple = "x86_64-pc-linux-gnu"

%struct.pointf_s = type { double, double }

@stderr = external global ptr, align 8
@.str.41 = private unnamed_addr constant [49 x i8] c"out of memory when trying to allocate %zu bytes\0A\00", align 1
@.str.43 = private unnamed_addr constant [58 x i8] c"integer overflow when trying to allocate %zu * %zu bytes\0A\00", align 1

; Function Attrs: inlinehint nounwind uwtable
define internal ptr @gv_calloc(i64 noundef %0, i64 noundef %1) #3 {
  %3 = alloca i64, align 8
  %4 = alloca i64, align 8
  %5 = alloca ptr, align 8
  store i64 %0, ptr %3, align 8, !tbaa !49
  store i64 %1, ptr %4, align 8, !tbaa !49
  %6 = load i64, ptr %3, align 8, !tbaa !49
  %7 = icmp ugt i64 %6, 0
  br i1 %7, label %8, label %18

8:                                                ; preds = %2
  %9 = load i64, ptr %3, align 8, !tbaa !49
  %10 = udiv i64 -1, %9
  %11 = load i64, ptr %4, align 8, !tbaa !49
  %12 = icmp ult i64 %10, %11
  br i1 %12, label %13, label %18

13:                                               ; preds = %8
  %14 = load ptr, ptr @stderr, align 8, !tbaa !68
  %15 = load i64, ptr %3, align 8, !tbaa !49
  %16 = load i64, ptr %4, align 8, !tbaa !49
  %17 = call i32 (ptr, ptr, ...) @fprintf(ptr noundef %14, ptr noundef @.str.43, i64 noundef %15, i64 noundef %16) #15
  call void @graphviz_exit(i32 noundef 1) #17
  unreachable

18:                                               ; preds = %8, %2
  call void @llvm.lifetime.start.p0(i64 8, ptr %5) #15
  %19 = load i64, ptr %3, align 8, !tbaa !49
  %20 = load i64, ptr %4, align 8, !tbaa !49
  %21 = call noalias ptr @calloc(i64 noundef %19, i64 noundef %20) #18
  store ptr %21, ptr %5, align 8, !tbaa !8
  %22 = load i64, ptr %3, align 8, !tbaa !49
  %23 = icmp ugt i64 %22, 0
  br i1 %23, label %24, label %36

24:                                               ; preds = %18
  %25 = load i64, ptr %4, align 8, !tbaa !49
  %26 = icmp ugt i64 %25, 0
  br i1 %26, label %27, label %36

27:                                               ; preds = %24
  %28 = load ptr, ptr %5, align 8, !tbaa !8
  %29 = icmp eq ptr %28, null
  br i1 %29, label %30, label %36

30:                                               ; preds = %27
  %31 = load ptr, ptr @stderr, align 8, !tbaa !68
  %32 = load i64, ptr %3, align 8, !tbaa !49
  %33 = load i64, ptr %4, align 8, !tbaa !49
  %34 = mul i64 %32, %33
  %35 = call i32 (ptr, ptr, ...) @fprintf(ptr noundef %31, ptr noundef @.str.41, i64 noundef %34) #15
  call void @graphviz_exit(i32 noundef 1) #17
  unreachable

36:                                               ; preds = %27, %24, %18
  %37 = load ptr, ptr %5, align 8, !tbaa !8
  call void @llvm.lifetime.end.p0(i64 8, ptr %5) #15
  ret ptr %37
}

; Function Attrs: nounwind uwtable
define internal ptr @pEllipse(double noundef %0, double noundef %1, i64 noundef %2) #0 {
  %4 = alloca double, align 8
  %5 = alloca double, align 8
  %6 = alloca i64, align 8
  %7 = alloca double, align 8
  %8 = alloca double, align 8
  %9 = alloca ptr, align 8
  %10 = alloca i64, align 8
  store double %0, ptr %4, align 8, !tbaa !106
  store double %1, ptr %5, align 8, !tbaa !106
  store i64 %2, ptr %6, align 8, !tbaa !49
  call void @llvm.lifetime.start.p0(i64 8, ptr %7) #15
  store double 0.000000e+00, ptr %7, align 8, !tbaa !106
  call void @llvm.lifetime.start.p0(i64 8, ptr %8) #15
  %11 = load i64, ptr %6, align 8, !tbaa !49
  %12 = uitofp i64 %11 to double
  %13 = fdiv double 0x401921FB54442D18, %12
  store double %13, ptr %8, align 8, !tbaa !106
  call void @llvm.lifetime.start.p0(i64 8, ptr %9) #15
  %14 = load i64, ptr %6, align 8, !tbaa !49
  %15 = call ptr @gv_calloc(i64 noundef %14, i64 noundef 16)
  store ptr %15, ptr %9, align 8, !tbaa !105
  call void @llvm.lifetime.start.p0(i64 8, ptr %10) #15
  store i64 0, ptr %10, align 8, !tbaa !49
  br label %16

16:                                               ; preds = %41, %3
  %17 = load i64, ptr %10, align 8, !tbaa !49
  %18 = load i64, ptr %6, align 8, !tbaa !49
  %19 = icmp ult i64 %17, %18
  br i1 %19, label %21, label %20

20:                                               ; preds = %16
  call void @llvm.lifetime.end.p0(i64 8, ptr %10) #15
  br label %44

21:                                               ; preds = %16
  %22 = load double, ptr %4, align 8, !tbaa !106
  %23 = load double, ptr %7, align 8, !tbaa !106
  %24 = call double @cos(double noundef %23) #15, !tbaa !44
  %25 = fmul double %22, %24
  %26 = load ptr, ptr %9, align 8, !tbaa !105
  %27 = load i64, ptr %10, align 8, !tbaa !49
  %28 = getelementptr inbounds nuw %struct.pointf_s, ptr %26, i64 %27
  %29 = getelementptr inbounds nuw %struct.pointf_s, ptr %28, i32 0, i32 0
  store double %25, ptr %29, align 8, !tbaa !110
  %30 = load double, ptr %5, align 8, !tbaa !106
  %31 = load double, ptr %7, align 8, !tbaa !106
  %32 = call double @sin(double noundef %31) #15, !tbaa !44
  %33 = fmul double %30, %32
  %34 = load ptr, ptr %9, align 8, !tbaa !105
  %35 = load i64, ptr %10, align 8, !tbaa !49
  %36 = getelementptr inbounds nuw %struct.pointf_s, ptr %34, i64 %35
  %37 = getelementptr inbounds nuw %struct.pointf_s, ptr %36, i32 0, i32 1
  store double %33, ptr %37, align 8, !tbaa !111
  %38 = load double, ptr %8, align 8, !tbaa !106
  %39 = load double, ptr %7, align 8, !tbaa !106
  %40 = fadd double %39, %38
  store double %40, ptr %7, align 8, !tbaa !106
  br label %41

41:                                               ; preds = %21
  %42 = load i64, ptr %10, align 8, !tbaa !49
  %43 = add i64 %42, 1
  store i64 %43, ptr %10, align 8, !tbaa !49
  br label %16, !llvm.loop !439

44:                                               ; preds = %20
  %45 = load ptr, ptr %9, align 8, !tbaa !105
  call void @llvm.lifetime.end.p0(i64 8, ptr %9) #15
  call void @llvm.lifetime.end.p0(i64 8, ptr %8) #15
  call void @llvm.lifetime.end.p0(i64 8, ptr %7) #15
  ret ptr %45
}