; Function Attrs: nofree nounwind uwtable
define internal fastcc noalias noundef ptr @pEllipse(double noundef %0, double noundef %1, i64 noundef range(i64 -2147483648, 2147483648) %2) unnamed_addr #3 {
  %4 = uitofp i64 %2 to double
  %5 = fdiv double 0x401921FB54442D18, %4
  %.not = icmp eq i64 %2, 0
  br i1 %.not, label %gv_calloc.exit.thread, label %7

gv_calloc.exit.thread:                            ; preds = %3
  %6 = tail call noalias ptr @calloc(i64 noundef 0, i64 noundef 16) #28
  br label %._crit_edge

7:                                                ; preds = %3
  %mul.ov.i = icmp ugt i64 %2, 1152921504606846975
  br i1 %mul.ov.i, label %8, label %11

8:                                                ; preds = %7
  %9 = load ptr, ptr @stderr, align 8, !tbaa !6
  %10 = tail call i32 (ptr, ptr, ...) @fprintf(ptr noundef %9, ptr noundef nonnull @.str.43, i64 noundef %2, i64 noundef 16) #29
  tail call fastcc void @graphviz_exit() #30
  unreachable

11:                                               ; preds = %7
  %12 = tail call noalias ptr @calloc(i64 noundef %2, i64 noundef 16) #28
  %13 = icmp eq ptr %12, null
  br i1 %13, label %14, label %.lr.ph

14:                                               ; preds = %11
  %15 = load ptr, ptr @stderr, align 8, !tbaa !6
  %16 = shl nuw nsw i64 %2, 4
  %17 = tail call i32 (ptr, ptr, ...) @fprintf(ptr noundef %15, ptr noundef nonnull @.str.41, i64 noundef %16) #29
  tail call fastcc void @graphviz_exit() #30
  unreachable

._crit_edge:                                      ; preds = %.lr.ph, %gv_calloc.exit.thread
  %18 = phi ptr [ %6, %gv_calloc.exit.thread ], [ %12, %.lr.ph ]
  ret ptr %18

.lr.ph:                                           ; preds = %11, %.lr.ph
  %.018 = phi i64 [ %26, %.lr.ph ], [ 0, %11 ]
  %.01517 = phi double [ %25, %.lr.ph ], [ 0.000000e+00, %11 ]
  %19 = tail call double @cos(double noundef %.01517) #27, !tbaa !39
  %20 = fmul double %0, %19
  %21 = getelementptr inbounds nuw %struct.pointf_s, ptr %12, i64 %.018
  store double %20, ptr %21, align 8, !tbaa !127
  %22 = tail call double @sin(double noundef %.01517) #27, !tbaa !39
  %23 = fmul double %1, %22
  %24 = getelementptr inbounds nuw i8, ptr %21, i64 8
  store double %23, ptr %24, align 8, !tbaa !139
  %25 = fadd double %5, %.01517
  %26 = add nuw i64 %.018, 1
  %exitcond.not = icmp eq i64 %26, %2
  br i1 %exitcond.not, label %._crit_edge, label %.lr.ph, !llvm.loop !502
}